target datalayout = "e-m:e-p270:32:32-p271:32:32-p272:64:64-i64:64-i128:128-f80:128-n8:16:32:64-S128"
target triple = "x86_64-pc-linux-gnu"

%struct.CopyFromStateData = type { i32, ptr, ptr, i32, i32, i8, i32, ptr, ptr, ptr, i8, ptr, %struct.CopyFormatOptions, ptr, ptr, ptr, i64, ptr, ptr, i8, ptr, i16, ptr, ptr, ptr, i64, ptr, ptr, ptr, i8, ptr, ptr, ptr, ptr, %struct.StringInfoData, i32, ptr, %struct.StringInfoData, i8, ptr, i32, i32, i8, i8, ptr, i32, i32, i8, i64 }
%struct.CopyFormatOptions = type { i32, i8, i8, i8, i32, ptr, i32, ptr, ptr, i32, ptr, ptr, ptr, ptr, i8, ptr, ptr, i8, ptr, ptr, i8, ptr, i8, i32, i32, i64, ptr }
%struct.StringInfoData = type { ptr, i32, i32, i32 }

@.str = private unnamed_addr constant [8 x i8] c"COPY %s\00", align 1
@.str.1 = private unnamed_addr constant [30 x i8] c"COPY %s, line %llu, column %s\00", align 1
@.str.2 = private unnamed_addr constant [19 x i8] c"COPY %s, line %llu\00", align 1
@.str.3 = private unnamed_addr constant [36 x i8] c"COPY %s, line %llu, column %s: \22%s\22\00", align 1
@.str.4 = private unnamed_addr constant [42 x i8] c"COPY %s, line %llu, column %s: null input\00", align 1
@.str.5 = private unnamed_addr constant [25 x i8] c"COPY %s, line %llu: \22%s\22\00", align 1
@.str.6 = private unnamed_addr constant [4 x i8] c"...\00", align 1

; Function Attrs: nounwind uwtable
define dso_local ptr @CopyLimitPrintoutLength(ptr noundef %0) #0 {
  %2 = alloca ptr, align 8
  %3 = alloca ptr, align 8
  %4 = alloca i32, align 4
  %5 = alloca i32, align 4
  %6 = alloca ptr, align 8
  %7 = alloca i32, align 4
  store ptr %0, ptr %3, align 8
  call void @llvm.lifetime.start.p0(i64 4, ptr %4) #11
  %8 = load ptr, ptr %3, align 8
  %9 = call i64 @strlen(ptr noundef %8) #12
  %10 = trunc i64 %9 to i32
  store i32 %10, ptr %4, align 4
  call void @llvm.lifetime.start.p0(i64 4, ptr %5) #11
  call void @llvm.lifetime.start.p0(i64 8, ptr %6) #11
  %11 = load i32, ptr %4, align 4
  %12 = icmp sle i32 %11, 100
  br i1 %12, label %13, label %16

13:                                               ; preds = %1
  %14 = load ptr, ptr %3, align 8
  %15 = call ptr @pstrdup(ptr noundef %14)
  store ptr %15, ptr %2, align 8
  store i32 1, ptr %7, align 4
  br label %34

16:                                               ; preds = %1
  %17 = load ptr, ptr %3, align 8
  %18 = load i32, ptr %4, align 4
  %19 = call i32 @pg_mbcliplen(ptr noundef %17, i32 noundef %18, i32 noundef 100)
  store i32 %19, ptr %5, align 4
  %20 = load i32, ptr %5, align 4
  %21 = add i32 %20, 4
  %22 = sext i32 %21 to i64
  %23 = call ptr @palloc(i64 noundef %22)
  store ptr %23, ptr %6, align 8
  %24 = load ptr, ptr %6, align 8
  %25 = load ptr, ptr %3, align 8
  %26 = load i32, ptr %5, align 4
  %27 = sext i32 %26 to i64
  call void @llvm.memcpy.p0.p0.i64(ptr align 1 %24, ptr align 1 %25, i64 %27, i1 false)
  %28 = load ptr, ptr %6, align 8
  %29 = load i32, ptr %5, align 4
  %30 = sext i32 %29 to i64
  %31 = getelementptr inbounds i8, ptr %28, i64 %30
  %32 = call ptr @strcpy(ptr noundef %31, ptr noundef @.str.6) #11
  %33 = load ptr, ptr %6, align 8
  store ptr %33, ptr %2, align 8
  store i32 1, ptr %7, align 4
  br label %34

34:                                               ; preds = %16, %13
  call void @llvm.lifetime.end.p0(i64 8, ptr %6) #11
  call void @llvm.lifetime.end.p0(i64 4, ptr %5) #11
  call void @llvm.lifetime.end.p0(i64 4, ptr %4) #11
  %35 = load ptr, ptr %2, align 8
  ret ptr %35
}

; Function Attrs: nounwind uwtable
define dso_local void @CopyFromErrorCallback(ptr noundef %0) #0 {
  %2 = alloca ptr, align 8
  %3 = alloca ptr, align 8
  %4 = alloca i32, align 4
  %5 = alloca ptr, align 8
  %6 = alloca ptr, align 8
  store ptr %0, ptr %2, align 8
  call void @llvm.lifetime.start.p0(i64 8, ptr %3) #11
  %7 = load ptr, ptr %2, align 8
  store ptr %7, ptr %3, align 8
  %8 = load ptr, ptr %3, align 8
  %9 = getelementptr inbounds nuw %struct.CopyFromStateData, ptr %8, i32 0, i32 19
  %10 = load i8, ptr %9, align 8, !range !4, !noundef !5
  %11 = trunc i8 %10 to i1
  br i1 %11, label %12, label %18

12:                                               ; preds = %1
  %13 = call i32 @set_errcontext_domain(ptr noundef null)
  %14 = load ptr, ptr %3, align 8
  %15 = getelementptr inbounds nuw %struct.CopyFromStateData, ptr %14, i32 0, i32 15
  %16 = load ptr, ptr %15, align 8
  %17 = call i32 (ptr, ...) @errcontext_msg(ptr noundef @.str, ptr noundef %16)
  store i32 1, ptr %4, align 4
  br label %130

18:                                               ; preds = %1
  %19 = load ptr, ptr %3, align 8
  %20 = getelementptr inbounds nuw %struct.CopyFromStateData, ptr %19, i32 0, i32 12
  %21 = getelementptr inbounds nuw %struct.CopyFormatOptions, ptr %20, i32 0, i32 1
  %22 = load i8, ptr %21, align 4, !range !4, !noundef !5
  %23 = trunc i8 %22 to i1
  br i1 %23, label %24, label %51

24:                                               ; preds = %18
  %25 = load ptr, ptr %3, align 8
  %26 = getelementptr inbounds nuw %struct.CopyFromStateData, ptr %25, i32 0, i32 17
  %27 = load ptr, ptr %26, align 8
  %28 = icmp ne ptr %27, null
  br i1 %28, label %29, label %41

29:                                               ; preds = %24
  %30 = call i32 @set_errcontext_domain(ptr noundef null)
  %31 = load ptr, ptr %3, align 8
  %32 = getelementptr inbounds nuw %struct.CopyFromStateData, ptr %31, i32 0, i32 15
  %33 = load ptr, ptr %32, align 8
  %34 = load ptr, ptr %3, align 8
  %35 = getelementptr inbounds nuw %struct.CopyFromStateData, ptr %34, i32 0, i32 16
  %36 = load i64, ptr %35, align 8
  %37 = load ptr, ptr %3, align 8
  %38 = getelementptr inbounds nuw %struct.CopyFromStateData, ptr %37, i32 0, i32 17
  %39 = load ptr, ptr %38, align 8
  %40 = call i32 (ptr, ...) @errcontext_msg(ptr noundef @.str.1, ptr noundef %33, i64 noundef %36, ptr noundef %39)
  br label %50

41:                                               ; preds = %24
  %42 = call i32 @set_errcontext_domain(ptr noundef null)
  %43 = load ptr, ptr %3, align 8
  %44 = getelementptr inbounds nuw %struct.CopyFromStateData, ptr %43, i32 0, i32 15
  %45 = load ptr, ptr %44, align 8
  %46 = load ptr, ptr %3, align 8
  %47 = getelementptr inbounds nuw %struct.CopyFromStateData, ptr %46, i32 0, i32 16
  %48 = load i64, ptr %47, align 8
  %49 = call i32 (ptr, ...) @errcontext_msg(ptr noundef @.str.2, ptr noundef %45, i64 noundef %48)
  br label %50

50:                                               ; preds = %41, %29
  br label %129

51:                                               ; preds = %18
  %52 = load ptr, ptr %3, align 8
  %53 = getelementptr inbounds nuw %struct.CopyFromStateData, ptr %52, i32 0, i32 17
  %54 = load ptr, ptr %53, align 8
  %55 = icmp ne ptr %54, null
  br i1 %55, label %56, label %79

56:                                               ; preds = %51
  %57 = load ptr, ptr %3, align 8
  %58 = getelementptr inbounds nuw %struct.CopyFromStateData, ptr %57, i32 0, i32 18
  %59 = load ptr, ptr %58, align 8
  %60 = icmp ne ptr %59, null
  br i1 %60, label %61, label %79

61:                                               ; preds = %56
  call void @llvm.lifetime.start.p0(i64 8, ptr %5) #11
  %62 = load ptr, ptr %3, align 8
  %63 = getelementptr inbounds nuw %struct.CopyFromStateData, ptr %62, i32 0, i32 18
  %64 = load ptr, ptr %63, align 8
  %65 = call ptr @CopyLimitPrintoutLength(ptr noundef %64)
  store ptr %65, ptr %5, align 8
  %66 = call i32 @set_errcontext_domain(ptr noundef null)
  %67 = load ptr, ptr %3, align 8
  %68 = getelementptr inbounds nuw %struct.CopyFromStateData, ptr %67, i32 0, i32 15
  %69 = load ptr, ptr %68, align 8
  %70 = load ptr, ptr %3, align 8
  %71 = getelementptr inbounds nuw %struct.CopyFromStateData, ptr %70, i32 0, i32 16
  %72 = load i64, ptr %71, align 8
  %73 = load ptr, ptr %3, align 8
  %74 = getelementptr inbounds nuw %struct.CopyFromStateData, ptr %73, i32 0, i32 17
  %75 = load ptr, ptr %74, align 8
  %76 = load ptr, ptr %5, align 8
  %77 = call i32 (ptr, ...) @errcontext_msg(ptr noundef @.str.3, ptr noundef %69, i64 noundef %72, ptr noundef %75, ptr noundef %76)
  %78 = load ptr, ptr %5, align 8
  call void @pfree(ptr noundef %78)
  call void @llvm.lifetime.end.p0(i64 8, ptr %5) #11
  br label %128

79:                                               ; preds = %56, %51
  %80 = load ptr, ptr %3, align 8
  %81 = getelementptr inbounds nuw %struct.CopyFromStateData, ptr %80, i32 0, i32 17
  %82 = load ptr, ptr %81, align 8
  %83 = icmp ne ptr %82, null
  br i1 %83, label %84, label %96

84:                                               ; preds = %79
  %85 = call i32 @set_errcontext_domain(ptr noundef null)
  %86 = load ptr, ptr %3, align 8
  %87 = getelementptr inbounds nuw %struct.CopyFromStateData, ptr %86, i32 0, i32 15
  %88 = load ptr, ptr %87, align 8
  %89 = load ptr, ptr %3, align 8
  %90 = getelementptr inbounds nuw %struct.CopyFromStateData, ptr %89, i32 0, i32 16
  %91 = load i64, ptr %90, align 8
  %92 = load ptr, ptr %3, align 8
  %93 = getelementptr inbounds nuw %struct.CopyFromStateData, ptr %92, i32 0, i32 17
  %94 = load ptr, ptr %93, align 8
  %95 = call i32 (ptr, ...) @errcontext_msg(ptr noundef @.str.4, ptr noundef %88, i64 noundef %91, ptr noundef %94)
  br label %127

96:                                               ; preds = %79
  %97 = load ptr, ptr %3, align 8
  %98 = getelementptr inbounds nuw %struct.CopyFromStateData, ptr %97, i32 0, i32 38
  %99 = load i8, ptr %98, align 8, !range !4, !noundef !5
  %100 = trunc i8 %99 to i1
  br i1 %100, label %101, label %117

101:                                              ; preds = %96
  call void @llvm.lifetime.start.p0(i64 8, ptr %6) #11
  %102 = load ptr, ptr %3, align 8
  %103 = getelementptr inbounds nuw %struct.CopyFromStateData, ptr %102, i32 0, i32 37
  %104 = getelementptr inbounds nuw %struct.StringInfoData, ptr %103, i32 0, i32 0
  %105 = load ptr, ptr %104, align 8
  %106 = call ptr @CopyLimitPrintoutLength(ptr noundef %105)
  store ptr %106, ptr %6, align 8
  %107 = call i32 @set_errcontext_domain(ptr noundef null)
  %108 = load ptr, ptr %3, align 8
  %109 = getelementptr inbounds nuw %struct.CopyFromStateData, ptr %108, i32 0, i32 15
  %110 = load ptr, ptr %109, align 8
  %111 = load ptr, ptr %3, align 8
  %112 = getelementptr inbounds nuw %struct.CopyFromStateData, ptr %111, i32 0, i32 16
  %113 = load i64, ptr %112, align 8
  %114 = load ptr, ptr %6, align 8
  %115 = call i32 (ptr, ...) @errcontext_msg(ptr noundef @.str.5, ptr noundef %110, i64 noundef %113, ptr noundef %114)
  %116 = load ptr, ptr %6, align 8
  call void @pfree(ptr noundef %116)
  call void @llvm.lifetime.end.p0(i64 8, ptr %6) #11
  br label %126

117:                                              ; preds = %96
  %118 = call i32 @set_errcontext_domain(ptr noundef null)
  %119 = load ptr, ptr %3, align 8
  %120 = getelementptr inbounds nuw %struct.CopyFromStateData, ptr %119, i32 0, i32 15
  %121 = load ptr, ptr %120, align 8
  %122 = load ptr, ptr %3, align 8
  %123 = getelementptr inbounds nuw %struct.CopyFromStateData, ptr %122, i32 0, i32 16
  %124 = load i64, ptr %123, align 8
  %125 = call i32 (ptr, ...) @errcontext_msg(ptr noundef @.str.2, ptr noundef %121, i64 noundef %124)
  br label %126

126:                                              ; preds = %117, %101
  br label %127

127:                                              ; preds = %126, %84
  br label %128

128:                                              ; preds = %127, %61
  br label %129

129:                                              ; preds = %128, %50
  store i32 0, ptr %4, align 4
  br label %130

130:                                              ; preds = %129, %12
  call void @llvm.lifetime.end.p0(i64 8, ptr %3) #11
  %131 = load i32, ptr %4, align 4
  switch i32 %131, label %133 [
    i32 0, label %132
    i32 1, label %132
  ]

132:                                              ; preds = %130, %130
  ret void

133:                                              ; preds = %130
  unreachable
}