; Function Attrs: nounwind uwtable
define dso_local void @CopyFromErrorCallback(ptr noundef readonly captures(none) %0) #0 {
  %2 = getelementptr inbounds nuw i8, ptr %0, i64 312
  %3 = load i8, ptr %2, align 8, !range !4, !noundef !5
  %4 = trunc nuw i8 %3 to i1
  br i1 %4, label %5, label %10

5:                                                ; preds = %1
  %6 = tail call i32 @set_errcontext_domain(ptr noundef null) #12
  %7 = getelementptr inbounds nuw i8, ptr %0, i64 280
  %8 = load ptr, ptr %7, align 8
  %9 = tail call i32 (ptr, ...) @errcontext_msg(ptr noundef nonnull @.str, ptr noundef %8) #12
  br label %91

10:                                               ; preds = %1
  %11 = getelementptr inbounds nuw i8, ptr %0, i64 84
  %12 = load i8, ptr %11, align 4, !range !4, !noundef !5
  %13 = trunc nuw i8 %12 to i1
  %14 = getelementptr inbounds nuw i8, ptr %0, i64 296
  %15 = load ptr, ptr %14, align 8
  %.not32 = icmp eq ptr %15, null
  br i1 %13, label %16, label %27

16:                                               ; preds = %10
  %17 = tail call i32 @set_errcontext_domain(ptr noundef null) #12
  %18 = getelementptr inbounds nuw i8, ptr %0, i64 280
  %19 = load ptr, ptr %18, align 8
  %20 = getelementptr inbounds nuw i8, ptr %0, i64 288
  %21 = load i64, ptr %20, align 8
  br i1 %.not32, label %25, label %22

22:                                               ; preds = %16
  %23 = load ptr, ptr %14, align 8
  %24 = tail call i32 (ptr, ...) @errcontext_msg(ptr noundef nonnull @.str.1, ptr noundef %19, i64 noundef %21, ptr noundef %23) #12
  br label %91

25:                                               ; preds = %16
  %26 = tail call i32 (ptr, ...) @errcontext_msg(ptr noundef nonnull @.str.2, ptr noundef %19, i64 noundef %21) #12
  br label %91

27:                                               ; preds = %10
  br i1 %.not32, label %59, label %28

28:                                               ; preds = %27
  %29 = getelementptr inbounds nuw i8, ptr %0, i64 304
  %30 = load ptr, ptr %29, align 8
  %.not30 = icmp eq ptr %30, null
  br i1 %.not30, label %51, label %31

31:                                               ; preds = %28
  %32 = tail call i64 @strlen(ptr noundef nonnull dereferenceable(1) %30) #13
  %33 = trunc i64 %32 to i32
  %34 = icmp slt i32 %33, 101
  br i1 %34, label %35, label %37

35:                                               ; preds = %31
  %36 = tail call ptr @pstrdup(ptr noundef nonnull %30) #12
  br label %CopyLimitPrintoutLength.exit

37:                                               ; preds = %31
  %38 = tail call i32 @pg_mbcliplen(ptr noundef nonnull %30, i32 noundef %33, i32 noundef 100) #12
  %39 = add i32 %38, 4
  %40 = sext i32 %39 to i64
  %41 = tail call ptr @palloc(i64 noundef %40) #12
  %42 = sext i32 %38 to i64
  tail call void @llvm.memcpy.p0.p0.i64(ptr align 1 %41, ptr nonnull align 1 %30, i64 %42, i1 false)
  %43 = getelementptr inbounds i8, ptr %41, i64 %42
  store i32 3026478, ptr %43, align 1
  br label %CopyLimitPrintoutLength.exit

CopyLimitPrintoutLength.exit:                     ; preds = %35, %37
  %.0.i = phi ptr [ %36, %35 ], [ %41, %37 ]
  %44 = tail call i32 @set_errcontext_domain(ptr noundef null) #12
  %45 = getelementptr inbounds nuw i8, ptr %0, i64 280
  %46 = load ptr, ptr %45, align 8
  %47 = getelementptr inbounds nuw i8, ptr %0, i64 288
  %48 = load i64, ptr %47, align 8
  %49 = load ptr, ptr %14, align 8
  %50 = tail call i32 (ptr, ...) @errcontext_msg(ptr noundef nonnull @.str.3, ptr noundef %46, i64 noundef %48, ptr noundef %49, ptr noundef %.0.i) #12
  tail call void @pfree(ptr noundef %.0.i) #12
  br label %91

51:                                               ; preds = %28
  %52 = tail call i32 @set_errcontext_domain(ptr noundef null) #12
  %53 = getelementptr inbounds nuw i8, ptr %0, i64 280
  %54 = load ptr, ptr %53, align 8
  %55 = getelementptr inbounds nuw i8, ptr %0, i64 288
  %56 = load i64, ptr %55, align 8
  %57 = load ptr, ptr %14, align 8
  %58 = tail call i32 (ptr, ...) @errcontext_msg(ptr noundef nonnull @.str.4, ptr noundef %54, i64 noundef %56, ptr noundef %57) #12
  br label %91

59:                                               ; preds = %27
  %60 = getelementptr inbounds nuw i8, ptr %0, i64 496
  %61 = load i8, ptr %60, align 8, !range !4, !noundef !5
  %62 = trunc nuw i8 %61 to i1
  br i1 %62, label %63, label %84

63:                                               ; preds = %59
  %64 = getelementptr inbounds nuw i8, ptr %0, i64 472
  %65 = load ptr, ptr %64, align 8
  %66 = tail call i64 @strlen(ptr noundef nonnull dereferenceable(1) %65) #13
  %67 = trunc i64 %66 to i32
  %68 = icmp slt i32 %67, 101
  br i1 %68, label %69, label %71

69:                                               ; preds = %63
  %70 = tail call ptr @pstrdup(ptr noundef nonnull %65) #12
  br label %CopyLimitPrintoutLength.exit34

71:                                               ; preds = %63
  %72 = tail call i32 @pg_mbcliplen(ptr noundef nonnull %65, i32 noundef %67, i32 noundef 100) #12
  %73 = add i32 %72, 4
  %74 = sext i32 %73 to i64
  %75 = tail call ptr @palloc(i64 noundef %74) #12
  %76 = sext i32 %72 to i64
  tail call void @llvm.memcpy.p0.p0.i64(ptr align 1 %75, ptr nonnull align 1 %65, i64 %76, i1 false)
  %77 = getelementptr inbounds i8, ptr %75, i64 %76
  store i32 3026478, ptr %77, align 1
  br label %CopyLimitPrintoutLength.exit34

CopyLimitPrintoutLength.exit34:                   ; preds = %69, %71
  %.0.i33 = phi ptr [ %70, %69 ], [ %75, %71 ]
  %78 = tail call i32 @set_errcontext_domain(ptr noundef null) #12
  %79 = getelementptr inbounds nuw i8, ptr %0, i64 280
  %80 = load ptr, ptr %79, align 8
  %81 = getelementptr inbounds nuw i8, ptr %0, i64 288
  %82 = load i64, ptr %81, align 8
  %83 = tail call i32 (ptr, ...) @errcontext_msg(ptr noundef nonnull @.str.5, ptr noundef %80, i64 noundef %82, ptr noundef %.0.i33) #12
  tail call void @pfree(ptr noundef %.0.i33) #12
  br label %91

84:                                               ; preds = %59
  %85 = tail call i32 @set_errcontext_domain(ptr noundef null) #12
  %86 = getelementptr inbounds nuw i8, ptr %0, i64 280
  %87 = load ptr, ptr %86, align 8
  %88 = getelementptr inbounds nuw i8, ptr %0, i64 288
  %89 = load i64, ptr %88, align 8
  %90 = tail call i32 (ptr, ...) @errcontext_msg(ptr noundef nonnull @.str.2, ptr noundef %87, i64 noundef %89) #12
  br label %91

91:                                               ; preds = %25, %22, %51, %84, %CopyLimitPrintoutLength.exit34, %CopyLimitPrintoutLength.exit, %5
  ret void
}